target datalayout = "e-m:e-p270:32:32-p271:32:32-p272:64:64-i64:64-i128:128-f80:128-n8:16:32:64-S128"
target triple = "x86_64-pc-linux-gnu"

%class.UatFrame = type { %class.QFrame, ptr, ptr, ptr, ptr }
%class.QFrame = type { %class.QWidget }
%class.QWidget = type { %class.QObject, %class.QPaintDevice.base, ptr }
%class.QObject = type { ptr, %class.QScopedPointer }
%class.QScopedPointer = type { ptr }
%class.QPaintDevice.base = type <{ ptr, i16 }>
%class.Ui_UatFrame = type { ptr, ptr, ptr, ptr, ptr, ptr, ptr, ptr, ptr, ptr, ptr, ptr }
%class.QModelIndex = type { i32, i32, i64, ptr }

; Function Attrs: inlinehint mustprogress nounwind null_pointer_is_valid sspstrong uwtable
define linkonce_odr void @_ZN11QModelIndexC2Ev(ptr noundef align 8 dereferenceable_or_null(24) %0) unnamed_addr #1 comdat align 2 {
  %2 = alloca ptr, align 8
  store ptr %0, ptr %2, align 8
  %3 = load ptr, ptr %2, align 8
  %4 = getelementptr inbounds nuw %class.QModelIndex, ptr %3, i32 0, i32 0
  store i32 -1, ptr %4, align 8
  %5 = getelementptr inbounds nuw %class.QModelIndex, ptr %3, i32 0, i32 1
  store i32 -1, ptr %5, align 4
  %6 = getelementptr inbounds nuw %class.QModelIndex, ptr %3, i32 0, i32 2
  store i64 0, ptr %6, align 8
  %7 = getelementptr inbounds nuw %class.QModelIndex, ptr %3, i32 0, i32 3
  store ptr null, ptr %7, align 8
  ret void
}

; Function Attrs: mustprogress null_pointer_is_valid sspstrong uwtable
define void @_ZN8UatFrame13resizeColumnsEv(ptr noundef align 8 dereferenceable_or_null(72) %0) #0 align 2 {
  %2 = alloca ptr, align 8
  %3 = alloca i32, align 4
  %4 = alloca %class.QModelIndex, align 8
  store ptr %0, ptr %2, align 8
  %5 = load ptr, ptr %2, align 8
  call void @llvm.lifetime.start.p0(i64 4, ptr %3) #22
  store i32 0, ptr %3, align 4
  br label %6

6:                                                ; preds = %43, %1
  %7 = load i32, ptr %3, align 4
  %8 = getelementptr inbounds nuw %class.UatFrame, ptr %5, i32 0, i32 2
  %9 = load ptr, ptr %8, align 8
  call void @llvm.lifetime.start.p0(i64 24, ptr %4) #22
  call void @_ZN11QModelIndexC2Ev(ptr noundef align 8 dereferenceable_or_null(24) %4) #22
  %10 = load ptr, ptr %9, align 8
  %11 = getelementptr inbounds ptr, ptr %10, i64 16
  %12 = load ptr, ptr %11, align 8
  %13 = call noundef i32 %12(ptr noundef align 8 dereferenceable_or_null(80) %9, ptr noundef align 8 dereferenceable(24) %4)
  %14 = icmp slt i32 %7, %13
  call void @llvm.lifetime.end.p0(i64 24, ptr %4) #22
  br i1 %14, label %16, label %15

15:                                               ; preds = %6
  call void @llvm.lifetime.end.p0(i64 4, ptr %3) #22
  br label %46

16:                                               ; preds = %6
  %17 = getelementptr inbounds nuw %class.UatFrame, ptr %5, i32 0, i32 1
  %18 = load ptr, ptr %17, align 8
  %19 = getelementptr inbounds nuw %class.Ui_UatFrame, ptr %18, i32 0, i32 1
  %20 = load ptr, ptr %19, align 8
  %21 = load i32, ptr %3, align 4
  call void @_ZN9QTreeView22resizeColumnToContentsEi(ptr noundef align 8 dereferenceable_or_null(40) %20, i32 noundef %21)
  %22 = load i32, ptr %3, align 4
  %23 = icmp eq i32 %22, 0
  br i1 %23, label %24, label %42

24:                                               ; preds = %16
  %25 = getelementptr inbounds nuw %class.UatFrame, ptr %5, i32 0, i32 1
  %26 = load ptr, ptr %25, align 8
  %27 = getelementptr inbounds nuw %class.Ui_UatFrame, ptr %26, i32 0, i32 1
  %28 = load ptr, ptr %27, align 8
  %29 = load i32, ptr %3, align 4
  %30 = getelementptr inbounds nuw %class.UatFrame, ptr %5, i32 0, i32 1
  %31 = load ptr, ptr %30, align 8
  %32 = getelementptr inbounds nuw %class.Ui_UatFrame, ptr %31, i32 0, i32 1
  %33 = load ptr, ptr %32, align 8
  %34 = load i32, ptr %3, align 4
  %35 = call noundef i32 @_ZNK9QTreeView11columnWidthEi(ptr noundef align 8 dereferenceable_or_null(40) %33, i32 noundef %34)
  %36 = getelementptr inbounds nuw %class.UatFrame, ptr %5, i32 0, i32 1
  %37 = load ptr, ptr %36, align 8
  %38 = getelementptr inbounds nuw %class.Ui_UatFrame, ptr %37, i32 0, i32 1
  %39 = load ptr, ptr %38, align 8
  %40 = call noundef i32 @_ZNK9QTreeView11indentationEv(ptr noundef align 8 dereferenceable_or_null(40) %39)
  %41 = add i32 %35, %40
  call void @_ZN9QTreeView14setColumnWidthEii(ptr noundef align 8 dereferenceable_or_null(40) %28, i32 noundef %29, i32 noundef %41)
  br label %42

42:                                               ; preds = %24, %16
  br label %43

43:                                               ; preds = %42
  %44 = load i32, ptr %3, align 4
  %45 = add i32 %44, 1
  store i32 %45, ptr %3, align 4
  br label %6, !llvm.loop !8

46:                                               ; preds = %15
  ret void
}