; Function Attrs: mustprogress null_pointer_is_valid sspstrong uwtable
define void @_ZN8UatFrame13resizeColumnsEv(ptr noundef readonly align 8 captures(none) dereferenceable_or_null(72) %0) local_unnamed_addr #0 align 2 {
  %2 = alloca %class.QModelIndex, align 8
  %3 = getelementptr inbounds nuw i8, ptr %0, i64 48
  %4 = getelementptr inbounds nuw i8, ptr %2, i64 4
  %5 = getelementptr inbounds nuw i8, ptr %2, i64 8
  %6 = load ptr, ptr %3, align 8
  call void @llvm.lifetime.start.p0(i64 24, ptr nonnull %2) #21
  store i32 -1, ptr %2, align 8
  store i32 -1, ptr %4, align 4
  call void @llvm.memset.p0.i64(ptr noundef nonnull align 8 dereferenceable(16) %5, i8 0, i64 16, i1 false)
  %7 = load ptr, ptr %6, align 8
  %8 = getelementptr inbounds nuw i8, ptr %7, i64 128
  %9 = load ptr, ptr %8, align 8
  %10 = call noundef i32 %9(ptr noundef align 8 dereferenceable_or_null(80) %6, ptr noundef nonnull align 8 dereferenceable(24) %2)
  %11 = icmp sgt i32 %10, 0
  call void @llvm.lifetime.end.p0(i64 24, ptr nonnull %2) #21
  br i1 %11, label %.lr.ph, label %._crit_edge

.lr.ph:                                           ; preds = %1
  %12 = getelementptr inbounds nuw i8, ptr %0, i64 40
  br label %13

._crit_edge:                                      ; preds = %28, %1
  ret void

13:                                               ; preds = %.lr.ph, %28
  %.06 = phi i32 [ 0, %.lr.ph ], [ %29, %28 ]
  %14 = load ptr, ptr %12, align 8
  %15 = getelementptr inbounds nuw i8, ptr %14, i64 8
  %16 = load ptr, ptr %15, align 8
  call void @_ZN9QTreeView22resizeColumnToContentsEi(ptr noundef align 8 dereferenceable_or_null(40) %16, i32 noundef %.06)
  %17 = icmp eq i32 %.06, 0
  br i1 %17, label %18, label %28

18:                                               ; preds = %13
  %19 = load ptr, ptr %12, align 8
  %20 = getelementptr inbounds nuw i8, ptr %19, i64 8
  %21 = load ptr, ptr %20, align 8
  %22 = call noundef i32 @_ZNK9QTreeView11columnWidthEi(ptr noundef align 8 dereferenceable_or_null(40) %21, i32 noundef 0)
  %23 = load ptr, ptr %12, align 8
  %24 = getelementptr inbounds nuw i8, ptr %23, i64 8
  %25 = load ptr, ptr %24, align 8
  %26 = call noundef i32 @_ZNK9QTreeView11indentationEv(ptr noundef align 8 dereferenceable_or_null(40) %25)
  %27 = add i32 %26, %22
  call void @_ZN9QTreeView14setColumnWidthEii(ptr noundef align 8 dereferenceable_or_null(40) %21, i32 noundef 0, i32 noundef %27)
  br label %28

28:                                               ; preds = %13, %18
  %29 = add nuw nsw i32 %.06, 1
  %30 = load ptr, ptr %3, align 8
  call void @llvm.lifetime.start.p0(i64 24, ptr nonnull %2) #21
  store i32 -1, ptr %2, align 8
  store i32 -1, ptr %4, align 4
  call void @llvm.memset.p0.i64(ptr noundef nonnull align 8 dereferenceable(16) %5, i8 0, i64 16, i1 false)
  %31 = load ptr, ptr %30, align 8
  %32 = getelementptr inbounds nuw i8, ptr %31, i64 128
  %33 = load ptr, ptr %32, align 8
  %34 = call noundef i32 %33(ptr noundef align 8 dereferenceable_or_null(80) %30, ptr noundef nonnull align 8 dereferenceable(24) %2)
  %35 = icmp slt i32 %29, %34
  call void @llvm.lifetime.end.p0(i64 24, ptr nonnull %2) #21
  br i1 %35, label %13, label %._crit_edge, !llvm.loop !23
}